target datalayout = "e-m:e-p270:32:32-p271:32:32-p272:64:64-i64:64-i128:128-f80:128-n8:16:32:64-S128"
target triple = "x86_64-pc-linux-gnu"

%struct.PJconsts = type { ptr, ptr, ptr, ptr, ptr, ptr, ptr, ptr, ptr, ptr, ptr, ptr, i32, ptr, ptr, ptr, ptr, ptr, ptr, ptr, ptr, double, double, double, double, double, double, double, double, double, double, double, double, double, double, double, double, double, double, double, double, double, double, i32, i32, i32, i32, i32, i32, i32, i32, i32, i32, i32, ptr, ptr, ptr, ptr, ptr, ptr, double, double, double, double, double, double, double, double, double, double, double, i32, [7 x double], i32, ptr, ptr, double, double, i32, [4 x i8], %"class.std::shared_ptr", i8, double, i8, %"class.std::__cxx11::basic_string", %"class.std::__cxx11::basic_string", %"class.std::__cxx11::basic_string", i8, %"class.std::vector", i32, %"class.std::vector.3", i32, i8, i8, i8, ptr }
%"class.std::shared_ptr" = type { %"class.std::__shared_ptr" }
%"class.std::__shared_ptr" = type { ptr, %"class.std::__shared_count" }
%"class.std::__shared_count" = type { ptr }
%"class.std::__cxx11::basic_string" = type { %"struct.std::__cxx11::basic_string<char>::_Alloc_hider", i64, %union.anon }
%"struct.std::__cxx11::basic_string<char>::_Alloc_hider" = type { ptr }
%union.anon = type { i64, [8 x i8] }
%"class.std::vector" = type { %"struct.std::_Vector_base" }
%"struct.std::_Vector_base" = type { %"struct.std::_Vector_base<osgeo::proj::operation::GridDescription, std::allocator<osgeo::proj::operation::GridDescription>>::_Vector_impl" }
%"struct.std::_Vector_base<osgeo::proj::operation::GridDescription, std::allocator<osgeo::proj::operation::GridDescription>>::_Vector_impl" = type { %"struct.std::_Vector_base<osgeo::proj::operation::GridDescription, std::allocator<osgeo::proj::operation::GridDescription>>::_Vector_impl_data" }
%"struct.std::_Vector_base<osgeo::proj::operation::GridDescription, std::allocator<osgeo::proj::operation::GridDescription>>::_Vector_impl_data" = type { ptr, ptr, ptr }
%"class.std::vector.3" = type { %"struct.std::_Vector_base.4" }
%"struct.std::_Vector_base.4" = type { %"struct.std::_Vector_base<PJCoordOperation, std::allocator<PJCoordOperation>>::_Vector_impl" }
%"struct.std::_Vector_base<PJCoordOperation, std::allocator<PJCoordOperation>>::_Vector_impl" = type { %"struct.std::_Vector_base<PJCoordOperation, std::allocator<PJCoordOperation>>::_Vector_impl_data" }
%"struct.std::_Vector_base<PJCoordOperation, std::allocator<PJCoordOperation>>::_Vector_impl_data" = type { ptr, ptr, ptr }

; Function Attrs: mustprogress uwtable
define noundef i32 @_Z10pj_ell_setP6pj_ctxP8ARG_listPdS3_(ptr noundef %0, ptr noundef %1, ptr noundef %2, ptr noundef %3) #0 personality ptr @__gxx_personality_v0 {
  %5 = alloca i32, align 4
  %6 = alloca ptr, align 8
  %7 = alloca ptr, align 8
  %8 = alloca ptr, align 8
  %9 = alloca ptr, align 8
  %10 = alloca %struct.PJconsts, align 8
  %11 = alloca i32, align 4
  %12 = alloca ptr, align 8
  %13 = alloca i32, align 4
  %14 = alloca i32, align 4
  store ptr %0, ptr %6, align 8, !tbaa !83
  store ptr %1, ptr %7, align 8, !tbaa !46
  store ptr %2, ptr %8, align 8, !tbaa !84
  store ptr %3, ptr %9, align 8, !tbaa !84
  call void @llvm.lifetime.start.p0(i64 856, ptr %10) #16
  call void @_ZN8PJconstsC1Ev(ptr noundef nonnull align 8 dereferenceable(856) %10)
  call void @llvm.lifetime.start.p0(i64 4, ptr %11) #16
  %15 = load ptr, ptr %6, align 8, !tbaa !83
  %16 = getelementptr inbounds nuw %struct.PJconsts, ptr %10, i32 0, i32 0
  store ptr %15, ptr %16, align 8, !tbaa !86
  %17 = load ptr, ptr %7, align 8, !tbaa !46
  %18 = getelementptr inbounds nuw %struct.PJconsts, ptr %10, i32 0, i32 3
  store ptr %17, ptr %18, align 8, !tbaa !42
  %19 = invoke noundef i32 @_Z12pj_ellipsoidP8PJconsts(ptr noundef %10)
          to label %20 unwind label %33

20:                                               ; preds = %4
  store i32 %19, ptr %11, align 4, !tbaa !8
  %21 = getelementptr inbounds nuw %struct.PJconsts, ptr %10, i32 0, i32 6
  %22 = load ptr, ptr %21, align 8, !tbaa !12
  call void @free(ptr noundef %22) #16
  %23 = getelementptr inbounds nuw %struct.PJconsts, ptr %10, i32 0, i32 7
  %24 = load ptr, ptr %23, align 8, !tbaa !39
  call void @free(ptr noundef %24) #16
  %25 = getelementptr inbounds nuw %struct.PJconsts, ptr %10, i32 0, i32 8
  %26 = load ptr, ptr %25, align 8, !tbaa !40
  call void @free(ptr noundef %26) #16
  %27 = getelementptr inbounds nuw %struct.PJconsts, ptr %10, i32 0, i32 9
  %28 = load ptr, ptr %27, align 8, !tbaa !41
  call void @free(ptr noundef %28) #16
  %29 = load i32, ptr %11, align 4, !tbaa !8
  %30 = icmp ne i32 %29, 0
  br i1 %30, label %31, label %37

31:                                               ; preds = %20
  %32 = load i32, ptr %11, align 4, !tbaa !8
  store i32 %32, ptr %5, align 4
  store i32 1, ptr %14, align 4
  br label %44

33:                                               ; preds = %4
  %34 = landingpad { ptr, i32 }
          cleanup
  %35 = extractvalue { ptr, i32 } %34, 0
  store ptr %35, ptr %12, align 8
  %36 = extractvalue { ptr, i32 } %34, 1
  store i32 %36, ptr %13, align 4
  call void @llvm.lifetime.end.p0(i64 4, ptr %11) #16
  call void @_ZN8PJconstsD2Ev(ptr noundef nonnull align 8 dereferenceable(856) %10) #16
  call void @llvm.lifetime.end.p0(i64 856, ptr %10) #16
  br label %46

37:                                               ; preds = %20
  %38 = getelementptr inbounds nuw %struct.PJconsts, ptr %10, i32 0, i32 21
  %39 = load double, ptr %38, align 8, !tbaa !43
  %40 = load ptr, ptr %8, align 8, !tbaa !84
  store double %39, ptr %40, align 8, !tbaa !55
  %41 = getelementptr inbounds nuw %struct.PJconsts, ptr %10, i32 0, i32 27
  %42 = load double, ptr %41, align 8, !tbaa !44
  %43 = load ptr, ptr %9, align 8, !tbaa !84
  store double %42, ptr %43, align 8, !tbaa !55
  store i32 0, ptr %5, align 4
  store i32 1, ptr %14, align 4
  br label %44

44:                                               ; preds = %37, %31
  call void @llvm.lifetime.end.p0(i64 4, ptr %11) #16
  call void @_ZN8PJconstsD2Ev(ptr noundef nonnull align 8 dereferenceable(856) %10) #16
  call void @llvm.lifetime.end.p0(i64 856, ptr %10) #16
  %45 = load i32, ptr %5, align 4
  ret i32 %45

46:                                               ; preds = %33
  %47 = load ptr, ptr %12, align 8
  %48 = load i32, ptr %13, align 4
  %49 = insertvalue { ptr, i32 } poison, ptr %47, 0
  %50 = insertvalue { ptr, i32 } %49, i32 %48, 1
  resume { ptr, i32 } %50
}