; Function Attrs: mustprogress uwtable
define noundef i32 @_Z10pj_ell_setP6pj_ctxP8ARG_listPdS3_(ptr noundef %0, ptr noundef %1, ptr noundef writeonly captures(none) %2, ptr noundef writeonly captures(none) %3) local_unnamed_addr #0 personality ptr @__gxx_personality_v0 {
  %5 = alloca %struct.PJconsts, align 8
  call void @llvm.lifetime.start.p0(i64 856, ptr nonnull %5) #15
  call void @_ZN8PJconstsC1Ev(ptr noundef nonnull align 8 dereferenceable(856) %5)
  store ptr %0, ptr %5, align 8, !tbaa !77
  %6 = getelementptr inbounds nuw i8, ptr %5, i64 24
  store ptr %1, ptr %6, align 8, !tbaa !39
  %7 = invoke noundef i32 @_Z12pj_ellipsoidP8PJconsts(ptr noundef nonnull %5)
          to label %8 unwind label %17

8:                                                ; preds = %4
  %9 = getelementptr inbounds nuw i8, ptr %5, i64 48
  %10 = load ptr, ptr %9, align 8, !tbaa !3
  call void @free(ptr noundef %10) #15
  %11 = getelementptr inbounds nuw i8, ptr %5, i64 56
  %12 = load ptr, ptr %11, align 8, !tbaa !36
  call void @free(ptr noundef %12) #15
  %13 = getelementptr inbounds nuw i8, ptr %5, i64 64
  %14 = load ptr, ptr %13, align 8, !tbaa !37
  call void @free(ptr noundef %14) #15
  %15 = getelementptr inbounds nuw i8, ptr %5, i64 72
  %16 = load ptr, ptr %15, align 8, !tbaa !38
  call void @free(ptr noundef %16) #15
  %.not = icmp eq i32 %7, 0
  br i1 %.not, label %19, label %24

17:                                               ; preds = %4
  %18 = landingpad { ptr, i32 }
          cleanup
  call void @_ZN8PJconstsD2Ev(ptr noundef nonnull align 8 dereferenceable(856) %5) #15
  call void @llvm.lifetime.end.p0(i64 856, ptr nonnull %5) #15
  resume { ptr, i32 } %18

19:                                               ; preds = %8
  %20 = getelementptr inbounds nuw i8, ptr %5, i64 168
  %21 = load double, ptr %20, align 8, !tbaa !44
  store double %21, ptr %2, align 8, !tbaa !78
  %22 = getelementptr inbounds nuw i8, ptr %5, i64 216
  %23 = load double, ptr %22, align 8, !tbaa !55
  store double %23, ptr %3, align 8, !tbaa !78
  br label %24

24:                                               ; preds = %8, %19
  call void @_ZN8PJconstsD2Ev(ptr noundef nonnull align 8 dereferenceable(856) %5) #15
  call void @llvm.lifetime.end.p0(i64 856, ptr nonnull %5) #15
  ret i32 %7
}